target datalayout = "e-m:e-p270:32:32-p271:32:32-p272:64:64-i64:64-i128:128-f80:128-n8:16:32:64-S128"
target triple = "x86_64-unknown-linux-gnu"

%"class.icu_75::CharsetDetector" = type { ptr, ptr, i32, i8, i8, ptr }
%"struct.icu_75::CSRecognizerInfo" = type <{ ptr, i8, [7 x i8] }>

@_ZL19fCSRecognizers_size = internal global i32 0, align 4
@_ZL14fCSRecognizers = internal global ptr null, align 8

; Function Attrs: mustprogress nounwind uwtable
define internal noundef signext i8 @_ZL9U_FAILURE10UErrorCode(i32 noundef %code) #3 {
entry:
  %code.addr = alloca i32, align 4
  store i32 %code, ptr %code.addr, align 4
  %0 = load i32, ptr %code.addr, align 4
  %cmp = icmp sgt i32 %0, 0
  %conv = zext i1 %cmp to i8
  ret i8 %conv
}

; Function Attrs: mustprogress uwtable
define void @_ZN6icu_7515CharsetDetector20setDetectableCharsetEPKcaR10UErrorCode(ptr noundef nonnull align 8 dereferenceable(32) %this, ptr noundef %encoding, i8 noundef signext %enabled, ptr noundef nonnull align 4 dereferenceable(4) %status) #0 align 2 {
entry:
  %this.addr = alloca ptr, align 8
  %encoding.addr = alloca ptr, align 8
  %enabled.addr = alloca i8, align 1
  %status.addr = alloca ptr, align 8
  %modIdx = alloca i32, align 4
  %isDefaultVal = alloca i8, align 1
  %i = alloca i32, align 4
  %csrinfo = alloca ptr, align 8
  %i23 = alloca i32, align 4
  store ptr %this, ptr %this.addr, align 8
  store ptr %encoding, ptr %encoding.addr, align 8
  store i8 %enabled, ptr %enabled.addr, align 1
  store ptr %status, ptr %status.addr, align 8
  %this1 = load ptr, ptr %this.addr, align 8
  %0 = load ptr, ptr %status.addr, align 8
  %1 = load i32, ptr %0, align 4
  %call = call noundef signext i8 @_ZL9U_FAILURE10UErrorCode(i32 noundef %1)
  %tobool = icmp ne i8 %call, 0
  br i1 %tobool, label %if.then, label %if.end

if.then:                                          ; preds = %entry
  br label %if.end43

if.end:                                           ; preds = %entry
  store i32 -1, ptr %modIdx, align 4
  store i8 0, ptr %isDefaultVal, align 1
  store i32 0, ptr %i, align 4
  br label %for.cond

for.cond:                                         ; preds = %for.inc, %if.end
  %2 = load i32, ptr %i, align 4
  %3 = load i32, ptr @_ZL19fCSRecognizers_size, align 4
  %cmp = icmp slt i32 %2, %3
  br i1 %cmp, label %for.body, label %for.end

for.body:                                         ; preds = %for.cond
  %4 = load ptr, ptr @_ZL14fCSRecognizers, align 8
  %5 = load i32, ptr %i, align 4
  %idxprom = sext i32 %5 to i64
  %arrayidx = getelementptr inbounds ptr, ptr %4, i64 %idxprom
  %6 = load ptr, ptr %arrayidx, align 8
  store ptr %6, ptr %csrinfo, align 8
  %7 = load ptr, ptr %csrinfo, align 8
  %recognizer = getelementptr inbounds %"struct.icu_75::CSRecognizerInfo", ptr %7, i32 0, i32 0
  %8 = load ptr, ptr %recognizer, align 8
  %vtable = load ptr, ptr %8, align 8
  %vfn = getelementptr inbounds ptr, ptr %vtable, i64 0
  %9 = load ptr, ptr %vfn, align 8
  %call2 = call noundef ptr %9(ptr noundef nonnull align 8 dereferenceable(8) %8)
  %10 = load ptr, ptr %encoding.addr, align 8
  %call3 = call i32 @strcmp(ptr noundef %call2, ptr noundef %10) #12
  %cmp4 = icmp eq i32 %call3, 0
  br i1 %cmp4, label %if.then5, label %if.end9

if.then5:                                         ; preds = %for.body
  %11 = load i32, ptr %i, align 4
  store i32 %11, ptr %modIdx, align 4
  %12 = load ptr, ptr %csrinfo, align 8
  %isDefaultEnabled = getelementptr inbounds %"struct.icu_75::CSRecognizerInfo", ptr %12, i32 0, i32 1
  %13 = load i8, ptr %isDefaultEnabled, align 8
  %conv = sext i8 %13 to i32
  %14 = load i8, ptr %enabled.addr, align 1
  %conv6 = sext i8 %14 to i32
  %cmp7 = icmp eq i32 %conv, %conv6
  %conv8 = zext i1 %cmp7 to i8
  store i8 %conv8, ptr %isDefaultVal, align 1
  br label %for.end

if.end9:                                          ; preds = %for.body
  br label %for.inc

for.inc:                                          ; preds = %if.end9
  %15 = load i32, ptr %i, align 4
  %inc = add nsw i32 %15, 1
  store i32 %inc, ptr %i, align 4
  br label %for.cond, !llvm.loop !9

for.end:                                          ; preds = %if.then5, %for.cond
  %16 = load i32, ptr %modIdx, align 4
  %cmp10 = icmp slt i32 %16, 0
  br i1 %cmp10, label %if.then11, label %if.end12

if.then11:                                        ; preds = %for.end
  %17 = load ptr, ptr %status.addr, align 8
  store i32 1, ptr %17, align 4
  br label %if.end43

if.end12:                                         ; preds = %for.end
  %fEnabledRecognizers = getelementptr inbounds %"class.icu_75::CharsetDetector", ptr %this1, i32 0, i32 5
  %18 = load ptr, ptr %fEnabledRecognizers, align 8
  %cmp13 = icmp eq ptr %18, null
  br i1 %cmp13, label %land.lhs.true, label %if.end36

land.lhs.true:                                    ; preds = %if.end12
  %19 = load i8, ptr %isDefaultVal, align 1
  %tobool14 = icmp ne i8 %19, 0
  br i1 %tobool14, label %if.end36, label %if.then15

if.then15:                                        ; preds = %land.lhs.true
  %20 = load i32, ptr @_ZL19fCSRecognizers_size, align 4
  %conv16 = sext i32 %20 to i64
  %mul = mul i64 %conv16, 1
  %call17 = call noalias ptr @uprv_malloc_75(i64 noundef %mul) #10
  %fEnabledRecognizers18 = getelementptr inbounds %"class.icu_75::CharsetDetector", ptr %this1, i32 0, i32 5
  store ptr %call17, ptr %fEnabledRecognizers18, align 8
  %fEnabledRecognizers19 = getelementptr inbounds %"class.icu_75::CharsetDetector", ptr %this1, i32 0, i32 5
  %21 = load ptr, ptr %fEnabledRecognizers19, align 8
  %cmp20 = icmp eq ptr %21, null
  br i1 %cmp20, label %if.then21, label %if.end22

if.then21:                                        ; preds = %if.then15
  %22 = load ptr, ptr %status.addr, align 8
  store i32 7, ptr %22, align 4
  br label %if.end43

if.end22:                                         ; preds = %if.then15
  store i32 0, ptr %i23, align 4
  br label %for.cond24

for.cond24:                                       ; preds = %for.inc33, %if.end22
  %23 = load i32, ptr %i23, align 4
  %24 = load i32, ptr @_ZL19fCSRecognizers_size, align 4
  %cmp25 = icmp slt i32 %23, %24
  br i1 %cmp25, label %for.body26, label %for.end35

for.body26:                                       ; preds = %for.cond24
  %25 = load ptr, ptr @_ZL14fCSRecognizers, align 8
  %26 = load i32, ptr %i23, align 4
  %idxprom27 = sext i32 %26 to i64
  %arrayidx28 = getelementptr inbounds ptr, ptr %25, i64 %idxprom27
  %27 = load ptr, ptr %arrayidx28, align 8
  %isDefaultEnabled29 = getelementptr inbounds %"struct.icu_75::CSRecognizerInfo", ptr %27, i32 0, i32 1
  %28 = load i8, ptr %isDefaultEnabled29, align 8
  %fEnabledRecognizers30 = getelementptr inbounds %"class.icu_75::CharsetDetector", ptr %this1, i32 0, i32 5
  %29 = load ptr, ptr %fEnabledRecognizers30, align 8
  %30 = load i32, ptr %i23, align 4
  %idxprom31 = sext i32 %30 to i64
  %arrayidx32 = getelementptr inbounds i8, ptr %29, i64 %idxprom31
  store i8 %28, ptr %arrayidx32, align 1
  br label %for.inc33

for.inc33:                                        ; preds = %for.body26
  %31 = load i32, ptr %i23, align 4
  %inc34 = add nsw i32 %31, 1
  store i32 %inc34, ptr %i23, align 4
  br label %for.cond24, !llvm.loop !10

for.end35:                                        ; preds = %for.cond24
  br label %if.end36

if.end36:                                         ; preds = %for.end35, %land.lhs.true, %if.end12
  %fEnabledRecognizers37 = getelementptr inbounds %"class.icu_75::CharsetDetector", ptr %this1, i32 0, i32 5
  %32 = load ptr, ptr %fEnabledRecognizers37, align 8
  %cmp38 = icmp ne ptr %32, null
  br i1 %cmp38, label %if.then39, label %if.end43

if.then39:                                        ; preds = %if.end36
  %33 = load i8, ptr %enabled.addr, align 1
  %fEnabledRecognizers40 = getelementptr inbounds %"class.icu_75::CharsetDetector", ptr %this1, i32 0, i32 5
  %34 = load ptr, ptr %fEnabledRecognizers40, align 8
  %35 = load i32, ptr %modIdx, align 4
  %idxprom41 = sext i32 %35 to i64
  %arrayidx42 = getelementptr inbounds i8, ptr %34, i64 %idxprom41
  store i8 %33, ptr %arrayidx42, align 1
  br label %if.end43

if.end43:                                         ; preds = %if.then39, %if.end36, %if.then21, %if.then11, %if.then
  ret void
}