; Function Attrs: mustprogress uwtable
define void @_ZN6icu_7515CharsetDetector20setDetectableCharsetEPKcaR10UErrorCode(ptr nocapture noundef nonnull align 8 dereferenceable(32) %this, ptr nocapture noundef readonly %encoding, i8 noundef signext %enabled, ptr nocapture noundef nonnull align 4 dereferenceable(4) %status) local_unnamed_addr #0 align 2 {
entry:
  %0 = load i32, ptr %status, align 4
  %cmp.i = icmp slt i32 %0, 1
  br i1 %cmp.i, label %for.cond.preheader, label %if.end43

for.cond.preheader:                               ; preds = %entry
  %.b1320 = load i1, ptr @_ZL19fCSRecognizers_size, align 4
  br i1 %.b1320, label %for.body, label %if.then11

for.body:                                         ; preds = %for.cond.preheader, %for.inc
  %indvars.iv = phi i64 [ %indvars.iv.next, %for.inc ], [ 0, %for.cond.preheader ]
  %1 = load ptr, ptr @_ZL14fCSRecognizers, align 8
  %arrayidx = getelementptr inbounds ptr, ptr %1, i64 %indvars.iv
  %2 = load ptr, ptr %arrayidx, align 8
  %3 = load ptr, ptr %2, align 8
  %vtable = load ptr, ptr %3, align 8
  %4 = load ptr, ptr %vtable, align 8
  %call2 = tail call noundef ptr %4(ptr noundef nonnull align 8 dereferenceable(8) %3)
  %call3 = tail call i32 @strcmp(ptr noundef nonnull dereferenceable(1) %call2, ptr noundef nonnull dereferenceable(1) %encoding) #17
  %cmp4 = icmp eq i32 %call3, 0
  br i1 %cmp4, label %if.end12, label %for.inc

for.inc:                                          ; preds = %for.body
  %indvars.iv.next = add nuw nsw i64 %indvars.iv, 1
  %.b13 = load i1, ptr @_ZL19fCSRecognizers_size, align 4
  %cmp14 = icmp ult i64 %indvars.iv, 27
  %cmp = and i1 %.b13, %cmp14
  br i1 %cmp, label %for.body, label %if.then11, !llvm.loop !9

if.then11:                                        ; preds = %for.inc, %for.cond.preheader
  store i32 1, ptr %status, align 4
  br label %if.end43

if.end12:                                         ; preds = %for.body
  %isDefaultEnabled = getelementptr inbounds i8, ptr %2, i64 8
  %5 = load i8, ptr %isDefaultEnabled, align 8
  %cmp7 = icmp eq i8 %5, %enabled
  %fEnabledRecognizers = getelementptr inbounds i8, ptr %this, i64 24
  %6 = load ptr, ptr %fEnabledRecognizers, align 8
  %cmp13 = icmp ne ptr %6, null
  %or.cond = select i1 %cmp13, i1 true, i1 %cmp7
  br i1 %or.cond, label %if.end36, label %if.then15

if.then15:                                        ; preds = %if.end12
  %.b12 = load i1, ptr @_ZL19fCSRecognizers_size, align 4
  %conv16 = select i1 %.b12, i64 28, i64 0
  %call17 = tail call noalias ptr @uprv_malloc_75(i64 noundef %conv16) #15
  store ptr %call17, ptr %fEnabledRecognizers, align 8
  %cmp20 = icmp eq ptr %call17, null
  br i1 %cmp20, label %if.then21, label %for.cond24.preheader

for.cond24.preheader:                             ; preds = %if.then15
  %.b = load i1, ptr @_ZL19fCSRecognizers_size, align 4
  br i1 %.b, label %for.body26.lr.ph, label %if.then39

for.body26.lr.ph:                                 ; preds = %for.cond24.preheader
  %7 = load ptr, ptr @_ZL14fCSRecognizers, align 8
  br label %for.body26

if.then21:                                        ; preds = %if.then15
  store i32 7, ptr %status, align 4
  br label %if.end43

for.body26:                                       ; preds = %for.body26.lr.ph, %for.body26
  %indvars.iv26 = phi i64 [ 0, %for.body26.lr.ph ], [ %indvars.iv.next27, %for.body26 ]
  %arrayidx28 = getelementptr inbounds ptr, ptr %7, i64 %indvars.iv26
  %8 = load ptr, ptr %arrayidx28, align 8
  %isDefaultEnabled29 = getelementptr inbounds i8, ptr %8, i64 8
  %9 = load i8, ptr %isDefaultEnabled29, align 8
  %10 = load ptr, ptr %fEnabledRecognizers, align 8
  %arrayidx32 = getelementptr inbounds i8, ptr %10, i64 %indvars.iv26
  store i8 %9, ptr %arrayidx32, align 1
  %indvars.iv.next27 = add nuw nsw i64 %indvars.iv26, 1
  %exitcond.not = icmp eq i64 %indvars.iv.next27, 28
  br i1 %exitcond.not, label %if.end36thread-pre-split.loopexit, label %for.body26, !llvm.loop !10

if.end36thread-pre-split.loopexit:                ; preds = %for.body26
  %.pr.pre = load ptr, ptr %fEnabledRecognizers, align 8
  br label %if.end36

if.end36:                                         ; preds = %if.end36thread-pre-split.loopexit, %if.end12
  %11 = phi ptr [ %6, %if.end12 ], [ %.pr.pre, %if.end36thread-pre-split.loopexit ]
  %cmp38.not = icmp eq ptr %11, null
  br i1 %cmp38.not, label %if.end43, label %if.then39

if.then39:                                        ; preds = %for.cond24.preheader, %if.end36
  %12 = phi ptr [ %11, %if.end36 ], [ %call17, %for.cond24.preheader ]
  %idxprom41 = and i64 %indvars.iv, 4294967295
  %arrayidx42 = getelementptr inbounds i8, ptr %12, i64 %idxprom41
  store i8 %enabled, ptr %arrayidx42, align 1
  br label %if.end43

if.end43:                                         ; preds = %entry, %if.then39, %if.end36, %if.then21, %if.then11
  ret void
}